target datalayout = "e-m:e-p270:32:32-p271:32:32-p272:64:64-i64:64-i128:128-f80:128-n8:16:32:64-S128"
target triple = "x86_64-pc-linux-gnu"

; Function Attrs: nounwind uwtable
define i32 @dt_util_str_occurence(ptr noundef %0, ptr noundef %1) #0 {
  %3 = alloca ptr, align 8
  %4 = alloca ptr, align 8
  %5 = alloca i32, align 4
  %6 = alloca ptr, align 8
  store ptr %0, ptr %3, align 8, !tbaa !6
  store ptr %1, ptr %4, align 8, !tbaa !6
  call void @llvm.lifetime.start.p0(i64 4, ptr %5) #18
  store i32 0, ptr %5, align 4, !tbaa !15
  %7 = load ptr, ptr %3, align 8, !tbaa !6
  %8 = icmp ne ptr %7, null
  br i1 %8, label %9, label %35

9:                                                ; preds = %2
  %10 = load ptr, ptr %4, align 8, !tbaa !6
  %11 = icmp ne ptr %10, null
  br i1 %11, label %12, label %35

12:                                               ; preds = %9
  call void @llvm.lifetime.start.p0(i64 8, ptr %6) #18
  %13 = load ptr, ptr %3, align 8, !tbaa !6
  store ptr %13, ptr %6, align 8, !tbaa !6
  %14 = load ptr, ptr %6, align 8, !tbaa !6
  %15 = load ptr, ptr %6, align 8, !tbaa !6
  %16 = call i64 @strlen(ptr noundef %15) #17
  %17 = load ptr, ptr %4, align 8, !tbaa !6
  %18 = call ptr @g_strstr_len(ptr noundef %14, i64 noundef %16, ptr noundef %17)
  store ptr %18, ptr %6, align 8, !tbaa !6
  %19 = icmp ne ptr %18, null
  br i1 %19, label %20, label %34

20:                                               ; preds = %12
  br label %21

21:                                               ; preds = %24, %20
  %22 = load i32, ptr %5, align 4, !tbaa !15
  %23 = add i32 %22, 1
  store i32 %23, ptr %5, align 4, !tbaa !15
  br label %24

24:                                               ; preds = %21
  %25 = load ptr, ptr %6, align 8, !tbaa !6
  %26 = getelementptr inbounds i8, ptr %25, i64 1
  %27 = load ptr, ptr %6, align 8, !tbaa !6
  %28 = getelementptr inbounds i8, ptr %27, i64 1
  %29 = call i64 @strlen(ptr noundef %28) #17
  %30 = load ptr, ptr %4, align 8, !tbaa !6
  %31 = call ptr @g_strstr_len(ptr noundef %26, i64 noundef %29, ptr noundef %30)
  store ptr %31, ptr %6, align 8, !tbaa !6
  %32 = icmp ne ptr %31, null
  br i1 %32, label %21, label %33

33:                                               ; preds = %24
  br label %34

34:                                               ; preds = %33, %12
  call void @llvm.lifetime.end.p0(i64 8, ptr %6) #18
  br label %35

35:                                               ; preds = %34, %9, %2
  %36 = load i32, ptr %5, align 4, !tbaa !15
  call void @llvm.lifetime.end.p0(i64 4, ptr %5) #18
  ret i32 %36
}