; Function Attrs: nounwind uwtable
define i32 @dt_util_str_occurence(ptr noundef %0, ptr noundef %1) local_unnamed_addr #0 {
  %3 = icmp ne ptr %0, null
  %4 = icmp ne ptr %1, null
  %or.cond = and i1 %3, %4
  br i1 %or.cond, label %5, label %.loopexit

5:                                                ; preds = %2
  %6 = tail call i64 @strlen(ptr noundef nonnull dereferenceable(1) %0) #26
  %7 = tail call ptr @g_strstr_len(ptr noundef nonnull %0, i64 noundef %6, ptr noundef nonnull %1) #27
  %.not = icmp eq ptr %7, null
  br i1 %.not, label %.loopexit, label %.preheader

.preheader:                                       ; preds = %5, %.preheader
  %.2 = phi i32 [ %8, %.preheader ], [ 0, %5 ]
  %.0 = phi ptr [ %11, %.preheader ], [ %7, %5 ]
  %8 = add i32 %.2, 1
  %9 = getelementptr inbounds nuw i8, ptr %.0, i64 1
  %10 = tail call i64 @strlen(ptr noundef nonnull dereferenceable(1) %9) #26
  %11 = tail call ptr @g_strstr_len(ptr noundef nonnull %9, i64 noundef %10, ptr noundef nonnull %1) #27
  %.not15 = icmp eq ptr %11, null
  br i1 %.not15, label %.loopexit, label %.preheader

.loopexit:                                        ; preds = %.preheader, %5, %2
  %.011 = phi i32 [ 0, %2 ], [ 0, %5 ], [ %8, %.preheader ]
  ret i32 %.011
}